target datalayout = "e-m:e-p270:32:32-p271:32:32-p272:64:64-i64:64-i128:128-f80:128-n8:16:32:64-S128"
target triple = "x86_64-unknown-linux-gnu"

%struct.QemuEvent = type { i32, i8 }
%struct.QemuThread = type { i64 }
%struct.QemuSemaphore = type { %struct.QemuMutex, %struct.QemuCond, i32 }
%struct.QemuMutex = type { %union.pthread_mutex_t, i8 }
%union.pthread_mutex_t = type { %struct.__pthread_mutex_s }
%struct.__pthread_mutex_s = type { i32, i32, i32, i32, i32, i16, i16, %struct.__pthread_internal_list }
%struct.__pthread_internal_list = type { ptr, ptr }
%struct.QemuCond = type { %union.pthread_cond_t, i8 }
%union.pthread_cond_t = type { %struct.__pthread_cond_s }
%struct.__pthread_cond_s = type { %union.__atomic_wide_counter, %union.__atomic_wide_counter, [2 x i32], [2 x i32], i32, i32, [2 x i32] }
%union.__atomic_wide_counter = type { i64 }
%struct.MigrationState = type { %struct.DeviceState, %struct.QemuThread, ptr, ptr, ptr, ptr, %struct.QemuSemaphore, ptr, %struct.QemuMutex, %struct.QemuSemaphore, i64, double, i64, i64, i64, %struct.MigrationParameters, i32, %struct.anon.2, double, i64, i64, i64, i64, i64, [23 x i8], i64, i32, i8, i8, i8, i8, %struct.QemuSemaphore, %struct.QemuSemaphore, %struct.QemuSemaphore, %struct.QemuEvent, i64, ptr, ptr, %struct.QemuMutex, i8, i8, i8, i8, %struct.QemuSemaphore, i8, i8, i8, i8, ptr, ptr, i8, i8 }
%struct.DeviceState = type { %struct.Object, ptr, ptr, i8, i8, i64, ptr, i32, i8, ptr, %struct.NamedGPIOListHead, %struct.NamedClockListHead, %struct.BusStateHead, i32, i32, i32, %struct.ResettableState, ptr, %struct.MemReentrancyGuard }
%struct.Object = type { ptr, ptr, ptr, i32, ptr }
%struct.NamedGPIOListHead = type { ptr }
%struct.NamedClockListHead = type { ptr }
%struct.BusStateHead = type { ptr }
%struct.ResettableState = type { i32, i8, i8 }
%struct.MemReentrancyGuard = type { i8 }
%struct.MigrationParameters = type { i8, i64, i8, i64, i8, i64, i8, i64, i8, i8, i8, i8, i8, i8, i8, i8, i8, i8, i8, i8, i8, i8, i8, i8, ptr, ptr, ptr, i8, i64, i8, i64, i8, i64, i8, i32, i8, i8, i8, i8, i8, i64, i8, i64, i8, i8, i8, i32, i8, i8, i8, i8, i8, ptr, i8, i64, i8, i64, i8, i32 }
%struct.anon.2 = type { ptr, %struct.QemuThread, i8, %struct.QemuSemaphore, %struct.QemuSemaphore }

@.str.2 = private unnamed_addr constant [30 x i8] c"../qemu/migration/migration.c\00", align 1

; Function Attrs: nounwind sspstrong uwtable
define internal i32 @migration_maybe_pause(ptr noundef %s, ptr noundef %current_active_state, i32 noundef %new_state) #0 {
entry:
  %retval = alloca i32, align 4
  %s.addr = alloca ptr, align 8
  %current_active_state.addr = alloca ptr, align 8
  %new_state.addr = alloca i32, align 4
  store ptr %s, ptr %s.addr, align 8
  store ptr %current_active_state, ptr %current_active_state.addr, align 8
  store i32 %new_state, ptr %new_state.addr, align 4
  %call = call zeroext i1 @migrate_pause_before_switchover()
  br i1 %call, label %if.end, label %if.then

if.then:                                          ; preds = %entry
  store i32 0, ptr %retval, align 4
  br label %return

if.end:                                           ; preds = %entry
  br label %while.cond

while.cond:                                       ; preds = %while.body, %if.end
  %0 = load ptr, ptr %s.addr, align 8
  %pause_sem = getelementptr inbounds %struct.MigrationState, ptr %0, i32 0, i32 32
  %call1 = call i32 @qemu_sem_timedwait(ptr noundef %pause_sem, i32 noundef 1)
  %cmp = icmp eq i32 %call1, 0
  br i1 %cmp, label %while.body, label %while.end

while.body:                                       ; preds = %while.cond
  br label %while.cond, !llvm.loop !23

while.end:                                        ; preds = %while.cond
  %1 = load ptr, ptr %s.addr, align 8
  %state = getelementptr inbounds %struct.MigrationState, ptr %1, i32 0, i32 16
  %2 = load i32, ptr %state, align 8
  %cmp2 = icmp ne i32 %2, 2
  br i1 %cmp2, label %if.then3, label %if.end7

if.then3:                                         ; preds = %while.end
  call void @qemu_mutex_unlock_iothread()
  %3 = load ptr, ptr %s.addr, align 8
  %state4 = getelementptr inbounds %struct.MigrationState, ptr %3, i32 0, i32 16
  %4 = load ptr, ptr %current_active_state.addr, align 8
  %5 = load i32, ptr %4, align 4
  call void @migrate_set_state(ptr noundef %state4, i32 noundef %5, i32 noundef 11)
  %6 = load ptr, ptr %s.addr, align 8
  %pause_sem5 = getelementptr inbounds %struct.MigrationState, ptr %6, i32 0, i32 32
  call void @qemu_sem_wait(ptr noundef %pause_sem5)
  %7 = load ptr, ptr %s.addr, align 8
  %state6 = getelementptr inbounds %struct.MigrationState, ptr %7, i32 0, i32 16
  %8 = load i32, ptr %new_state.addr, align 4
  call void @migrate_set_state(ptr noundef %state6, i32 noundef 11, i32 noundef %8)
  %9 = load i32, ptr %new_state.addr, align 4
  %10 = load ptr, ptr %current_active_state.addr, align 8
  store i32 %9, ptr %10, align 4
  call void @qemu_mutex_lock_iothread_impl(ptr noundef @.str.2, i32 noundef 2605)
  br label %if.end7

if.end7:                                          ; preds = %if.then3, %while.end
  %11 = load ptr, ptr %s.addr, align 8
  %state8 = getelementptr inbounds %struct.MigrationState, ptr %11, i32 0, i32 16
  %12 = load i32, ptr %state8, align 8
  %13 = load i32, ptr %new_state.addr, align 4
  %cmp9 = icmp eq i32 %12, %13
  %cond = select i1 %cmp9, i32 0, i32 -22
  store i32 %cond, ptr %retval, align 4
  br label %return

return:                                           ; preds = %if.end7, %if.then
  %14 = load i32, ptr %retval, align 4
  ret i32 %14
}