; Function Attrs: nounwind sspstrong uwtable
define internal fastcc range(i32 -22, 1) i32 @migration_maybe_pause(ptr noundef %s, ptr noundef nonnull captures(none) %current_active_state, i32 noundef range(i32 5, 13) %new_state) unnamed_addr #0 {
entry:
  %call = tail call zeroext i1 @migrate_pause_before_switchover() #19
  br i1 %call, label %while.cond.preheader, label %return

while.cond.preheader:                             ; preds = %entry
  %pause_sem = getelementptr inbounds nuw i8, ptr %s, i64 1232
  br label %while.cond

while.cond:                                       ; preds = %while.cond.preheader, %while.cond
  %call1 = tail call i32 @qemu_sem_timedwait(ptr noundef nonnull %pause_sem, i32 noundef 1) #19
  %cmp = icmp eq i32 %call1, 0
  br i1 %cmp, label %while.cond, label %while.end, !llvm.loop !17

while.end:                                        ; preds = %while.cond
  %state = getelementptr inbounds nuw i8, ptr %s, i64 776
  %0 = load i32, ptr %state, align 8
  %cmp2.not = icmp eq i32 %0, 2
  br i1 %cmp2.not, label %if.end7, label %if.then3

if.then3:                                         ; preds = %while.end
  tail call void @qemu_mutex_unlock_iothread() #19
  %1 = load i32, ptr %current_active_state, align 4
  tail call void @migrate_set_state(ptr noundef nonnull %state, i32 noundef %1, i32 noundef 11)
  tail call void @qemu_sem_wait(ptr noundef nonnull %pause_sem) #19
  tail call void @migrate_set_state(ptr noundef nonnull %state, i32 noundef 11, i32 noundef %new_state)
  store i32 %new_state, ptr %current_active_state, align 4
  tail call void @qemu_mutex_lock_iothread_impl(ptr noundef nonnull @.str.2, i32 noundef 2605) #19
  %.pre = load i32, ptr %state, align 8
  br label %if.end7

if.end7:                                          ; preds = %if.then3, %while.end
  %2 = phi i32 [ %.pre, %if.then3 ], [ 2, %while.end ]
  %cmp9 = icmp eq i32 %2, %new_state
  %cond = select i1 %cmp9, i32 0, i32 -22
  br label %return

return:                                           ; preds = %entry, %if.end7
  %retval.0 = phi i32 [ %cond, %if.end7 ], [ 0, %entry ]
  ret i32 %retval.0
}